; Function Attrs: mustprogress uwtable
define void @_ZN3net30QuicMultipathSentPacketManager23SetNetworkChangeVisitorEPNS_30QuicSentPacketManagerInterface20NetworkChangeVisitorE(ptr noundef nonnull readonly align 8 captures(none) dereferenceable(40) %0, ptr noundef %1) unnamed_addr #0 align 2 {
  %3 = alloca %"struct.net::QuicMultipathSentPacketManager::PathSentPacketManagerInfo", align 8
  %4 = getelementptr inbounds nuw i8, ptr %0, i64 8
  %5 = load ptr, ptr %4, align 8, !tbaa !20
  %6 = getelementptr inbounds nuw i8, ptr %0, i64 16
  %7 = load ptr, ptr %6, align 8, !tbaa !20
  %.not9 = icmp eq ptr %5, %7
  br i1 %.not9, label %._crit_edge, label %.lr.ph

.lr.ph:                                           ; preds = %2
  %8 = getelementptr inbounds nuw i8, ptr %3, i64 8
  br label %9

._crit_edge:                                      ; preds = %18, %2
  ret void

9:                                                ; preds = %.lr.ph, %18
  %.sroa.06.010 = phi ptr [ %5, %.lr.ph ], [ %19, %18 ]
  call void @llvm.lifetime.start.p0(i64 16, ptr nonnull %3) #17
  call void @_ZN3net30QuicMultipathSentPacketManager25PathSentPacketManagerInfoC1ERKS1_(ptr noundef nonnull align 8 dereferenceable(12) %3, ptr noundef nonnull align 8 dereferenceable(12) %.sroa.06.010)
  %10 = load ptr, ptr %3, align 8, !tbaa !21
  %11 = icmp eq ptr %10, null
  %12 = load i32, ptr %8, align 8
  %13 = icmp ne i32 %12, 0
  %or.cond = select i1 %11, i1 true, i1 %13
  br i1 %or.cond, label %18, label %14

14:                                               ; preds = %9
  %15 = load ptr, ptr %10, align 8, !tbaa !3
  %16 = getelementptr inbounds nuw i8, ptr %15, i64 272
  %17 = load ptr, ptr %16, align 8
  call void %17(ptr noundef nonnull align 8 dereferenceable(8) %10, ptr noundef %1)
  br label %18

18:                                               ; preds = %9, %14
  call void @llvm.lifetime.end.p0(i64 16, ptr nonnull %3) #17
  %19 = getelementptr inbounds nuw i8, ptr %.sroa.06.010, i64 16
  %.not = icmp eq ptr %19, %7
  br i1 %.not, label %._crit_edge, label %9
}